; Function Attrs: mustprogress nofree nounwind willreturn uwtable
define void @Abc_FlowRetime_InitTiming(ptr noundef readonly captures(none) %0) local_unnamed_addr #2 {
  %2 = load ptr, ptr @pManMR, align 8, !tbaa !35
  %3 = getelementptr inbounds nuw i8, ptr %2, i64 68
  store i32 0, ptr %3, align 4, !tbaa !37
  %4 = getelementptr inbounds nuw i8, ptr %2, i64 72
  store i32 0, ptr %4, align 8, !tbaa !41
  %5 = tail call noalias dereferenceable_or_null(16) ptr @malloc(i64 noundef 16) #12
  %6 = getelementptr inbounds nuw i8, ptr %5, i64 4
  store i32 0, ptr %6, align 4, !tbaa !42
  store i32 1000, ptr %5, align 8, !tbaa !43
  %7 = tail call noalias dereferenceable_or_null(8000) ptr @malloc(i64 noundef 8000) #12
  %8 = getelementptr inbounds nuw i8, ptr %5, i64 8
  store ptr %7, ptr %8, align 8, !tbaa !29
  %9 = getelementptr inbounds nuw i8, ptr %2, i64 128
  store ptr %5, ptr %9, align 8, !tbaa !44
  %10 = getelementptr i8, ptr %0, i64 32
  %.val = load ptr, ptr %10, align 8, !tbaa !15
  %11 = getelementptr i8, ptr %.val, i64 4
  %.val.val = load i32, ptr %11, align 4, !tbaa !42
  %12 = add nsw i32 %.val.val, 1
  %13 = sext i32 %12 to i64
  %14 = shl nsw i64 %13, 4
  %calloc = tail call ptr @calloc(i64 1, i64 %14)
  %15 = getelementptr inbounds nuw i8, ptr %2, i64 120
  store ptr %calloc, ptr %15, align 8, !tbaa !45
  ret void
}